(lp0
(ibook
Book
p1
(dp2
S'quantity'
p3
S'3'
p4
sS'id'
p5
g4
sS'name'
p6
S'erfan shega'
p7
sba(ibook
Book
p8
(dp9
g3
g4
sg5
S'2'
p10
sg6
S'sinshega'
p11
sba(ibook
Book
p12
(dp13
g3
g4
sg5
g10
sg6
S'nim shega'
p14
sba.